target datalayout = "e-m:e-p270:32:32-p271:32:32-p272:64:64-i64:64-i128:128-f80:128-n8:16:32:64-S128"
target triple = "x86_64-pc-linux-gnu"

%struct._longobject = type { %struct._object, %struct._PyLongValue }
%struct._object = type { %union.anon.41, ptr }
%union.anon.41 = type { i64 }
%struct._PyLongValue = type { i64, [1 x i32] }
%struct.PyVarObject = type { %struct._object, i64 }
%struct.PyASCIIObject = type { %struct._object, i64, i64, %struct.anon.46 }
%struct.anon.46 = type { i16, i16 }
%struct.PyCompactUnicodeObject = type { %struct.PyASCIIObject, i64, ptr }
%struct._typeobject = type { %struct.PyVarObject, ptr, i64, i64, ptr, i64, ptr, ptr, ptr, ptr, ptr, ptr, ptr, ptr, ptr, ptr, ptr, ptr, ptr, i64, ptr, ptr, ptr, ptr, i64, ptr, ptr, ptr, ptr, ptr, ptr, ptr, ptr, ptr, i64, ptr, ptr, ptr, ptr, ptr, ptr, ptr, ptr, ptr, ptr, ptr, i32, ptr, ptr, i8, i16 }
%struct.PyUnicodeObject = type { %struct.PyCompactUnicodeObject, %union.anon.806 }
%union.anon.806 = type { ptr }

@_Py_NotImplementedStruct = external global %struct._object, align 8
@_Py_TrueStruct = external global %struct._longobject, align 8
@_Py_FalseStruct = external global %struct._longobject, align 8

; Function Attrs: inlinehint nounwind uwtable
define internal i32 @PyUnicode_IS_ASCII(ptr noundef %0) #2 {
  %2 = alloca ptr, align 8
  store ptr %0, ptr %2, align 8, !tbaa !4
  %3 = load ptr, ptr %2, align 8, !tbaa !4
  %4 = getelementptr inbounds nuw %struct.PyASCIIObject, ptr %3, i32 0, i32 3
  %5 = getelementptr inbounds nuw %struct.anon.46, ptr %4, i32 0, i32 1
  %6 = load i16, ptr %5, align 2
  %7 = lshr i16 %6, 4
  %8 = and i16 %7, 1
  %9 = zext i16 %8 to i32
  ret i32 %9
}

; Function Attrs: inlinehint nounwind uwtable
define internal ptr @_PyUnicode_NONCOMPACT_DATA(ptr noundef %0) #2 {
  %2 = alloca ptr, align 8
  %3 = alloca ptr, align 8
  store ptr %0, ptr %2, align 8, !tbaa !4
  call void @llvm.lifetime.start.p0(i64 8, ptr %3) #12
  %4 = load ptr, ptr %2, align 8, !tbaa !4
  %5 = getelementptr inbounds nuw %struct.PyUnicodeObject, ptr %4, i32 0, i32 1
  %6 = load ptr, ptr %5, align 8, !tbaa !191
  store ptr %6, ptr %3, align 8, !tbaa !180
  %7 = load ptr, ptr %3, align 8, !tbaa !180
  call void @llvm.lifetime.end.p0(i64 8, ptr %3) #12
  ret ptr %7
}

; Function Attrs: inlinehint nounwind uwtable
define internal ptr @_PyUnicode_COMPACT_DATA(ptr noundef %0) #2 {
  %2 = alloca ptr, align 8
  %3 = alloca ptr, align 8
  store ptr %0, ptr %3, align 8, !tbaa !4
  %4 = load ptr, ptr %3, align 8, !tbaa !4
  %5 = call i32 @PyUnicode_IS_ASCII(ptr noundef %4)
  %6 = icmp ne i32 %5, 0
  br i1 %6, label %7, label %10

7:                                                ; preds = %1
  %8 = load ptr, ptr %3, align 8, !tbaa !4
  %9 = getelementptr %struct.PyASCIIObject, ptr %8, i64 1
  store ptr %9, ptr %2, align 8
  br label %13

10:                                               ; preds = %1
  %11 = load ptr, ptr %3, align 8, !tbaa !4
  %12 = getelementptr %struct.PyCompactUnicodeObject, ptr %11, i64 1
  store ptr %12, ptr %2, align 8
  br label %13

13:                                               ; preds = %10, %7
  %14 = load ptr, ptr %2, align 8
  ret ptr %14
}

; Function Attrs: inlinehint nounwind uwtable
define internal i32 @PyUnicode_IS_COMPACT(ptr noundef %0) #2 {
  %2 = alloca ptr, align 8
  store ptr %0, ptr %2, align 8, !tbaa !4
  %3 = load ptr, ptr %2, align 8, !tbaa !4
  %4 = getelementptr inbounds nuw %struct.PyASCIIObject, ptr %3, i32 0, i32 3
  %5 = getelementptr inbounds nuw %struct.anon.46, ptr %4, i32 0, i32 1
  %6 = load i16, ptr %5, align 2
  %7 = lshr i16 %6, 3
  %8 = and i16 %7, 1
  %9 = zext i16 %8 to i32
  ret i32 %9
}

; Function Attrs: inlinehint nounwind uwtable
define internal ptr @_PyUnicode_DATA(ptr noundef %0) #2 {
  %2 = alloca ptr, align 8
  %3 = alloca ptr, align 8
  store ptr %0, ptr %3, align 8, !tbaa !4
  %4 = load ptr, ptr %3, align 8, !tbaa !4
  %5 = call i32 @PyUnicode_IS_COMPACT(ptr noundef %4)
  %6 = icmp ne i32 %5, 0
  br i1 %6, label %7, label %10

7:                                                ; preds = %1
  %8 = load ptr, ptr %3, align 8, !tbaa !4
  %9 = call ptr @_PyUnicode_COMPACT_DATA(ptr noundef %8)
  store ptr %9, ptr %2, align 8
  br label %13

10:                                               ; preds = %1
  %11 = load ptr, ptr %3, align 8, !tbaa !4
  %12 = call ptr @_PyUnicode_NONCOMPACT_DATA(ptr noundef %11)
  store ptr %12, ptr %2, align 8
  br label %13

13:                                               ; preds = %10, %7
  %14 = load ptr, ptr %2, align 8
  ret ptr %14
}

; Function Attrs: inlinehint nounwind uwtable
define internal i64 @PyUnicode_GET_LENGTH(ptr noundef %0) #2 {
  %2 = alloca ptr, align 8
  store ptr %0, ptr %2, align 8, !tbaa !4
  %3 = load ptr, ptr %2, align 8, !tbaa !4
  %4 = getelementptr inbounds nuw %struct.PyASCIIObject, ptr %3, i32 0, i32 1
  %5 = load i64, ptr %4, align 8, !tbaa !194
  ret i64 %5
}

; Function Attrs: inlinehint nounwind uwtable
define internal i32 @unicode_eq(ptr noundef %0, ptr noundef %1) #2 {
  %3 = alloca i32, align 4
  %4 = alloca ptr, align 8
  %5 = alloca ptr, align 8
  %6 = alloca i64, align 8
  %7 = alloca i32, align 4
  %8 = alloca i32, align 4
  %9 = alloca ptr, align 8
  %10 = alloca ptr, align 8
  store ptr %0, ptr %4, align 8, !tbaa !4
  store ptr %1, ptr %5, align 8, !tbaa !4
  call void @llvm.lifetime.start.p0(i64 8, ptr %6) #12
  %11 = load ptr, ptr %4, align 8, !tbaa !4
  %12 = call i64 @PyUnicode_GET_LENGTH(ptr noundef %11)
  store i64 %12, ptr %6, align 8, !tbaa !185
  %13 = load ptr, ptr %5, align 8, !tbaa !4
  %14 = call i64 @PyUnicode_GET_LENGTH(ptr noundef %13)
  %15 = load i64, ptr %6, align 8, !tbaa !185
  %16 = icmp ne i64 %14, %15
  br i1 %16, label %17, label %18

17:                                               ; preds = %2
  store i32 0, ptr %3, align 4
  store i32 1, ptr %7, align 4
  br label %49

18:                                               ; preds = %2
  call void @llvm.lifetime.start.p0(i64 4, ptr %8) #12
  %19 = load ptr, ptr %4, align 8, !tbaa !4
  %20 = getelementptr inbounds nuw %struct.PyASCIIObject, ptr %19, i32 0, i32 3
  %21 = getelementptr inbounds nuw %struct.anon.46, ptr %20, i32 0, i32 1
  %22 = load i16, ptr %21, align 2
  %23 = and i16 %22, 7
  %24 = zext i16 %23 to i32
  store i32 %24, ptr %8, align 4, !tbaa !190
  %25 = load ptr, ptr %5, align 8, !tbaa !4
  %26 = getelementptr inbounds nuw %struct.PyASCIIObject, ptr %25, i32 0, i32 3
  %27 = getelementptr inbounds nuw %struct.anon.46, ptr %26, i32 0, i32 1
  %28 = load i16, ptr %27, align 2
  %29 = and i16 %28, 7
  %30 = zext i16 %29 to i32
  %31 = load i32, ptr %8, align 4, !tbaa !190
  %32 = icmp ne i32 %30, %31
  br i1 %32, label %33, label %34

33:                                               ; preds = %18
  store i32 0, ptr %3, align 4
  store i32 1, ptr %7, align 4
  br label %48

34:                                               ; preds = %18
  call void @llvm.lifetime.start.p0(i64 8, ptr %9) #12
  %35 = load ptr, ptr %4, align 8, !tbaa !4
  %36 = call ptr @_PyUnicode_DATA(ptr noundef %35)
  store ptr %36, ptr %9, align 8, !tbaa !180
  call void @llvm.lifetime.start.p0(i64 8, ptr %10) #12
  %37 = load ptr, ptr %5, align 8, !tbaa !4
  %38 = call ptr @_PyUnicode_DATA(ptr noundef %37)
  store ptr %38, ptr %10, align 8, !tbaa !180
  %39 = load ptr, ptr %9, align 8, !tbaa !180
  %40 = load ptr, ptr %10, align 8, !tbaa !180
  %41 = load i64, ptr %6, align 8, !tbaa !185
  %42 = load i32, ptr %8, align 4, !tbaa !190
  %43 = sext i32 %42 to i64
  %44 = mul i64 %41, %43
  %45 = call i32 @memcmp(ptr noundef %39, ptr noundef %40, i64 noundef %44) #13
  %46 = icmp eq i32 %45, 0
  %47 = zext i1 %46 to i32
  store i32 %47, ptr %3, align 4
  store i32 1, ptr %7, align 4
  call void @llvm.lifetime.end.p0(i64 8, ptr %10) #12
  call void @llvm.lifetime.end.p0(i64 8, ptr %9) #12
  br label %48

48:                                               ; preds = %34, %33
  call void @llvm.lifetime.end.p0(i64 4, ptr %8) #12
  br label %49

49:                                               ; preds = %48, %17
  call void @llvm.lifetime.end.p0(i64 8, ptr %6) #12
  %50 = load i32, ptr %3, align 4
  ret i32 %50
}

; Function Attrs: inlinehint nounwind uwtable
define internal i32 @PyType_HasFeature(ptr noundef %0, i64 noundef %1) #2 {
  %3 = alloca ptr, align 8
  %4 = alloca i64, align 8
  %5 = alloca i64, align 8
  store ptr %0, ptr %3, align 8, !tbaa !196
  store i64 %1, ptr %4, align 8, !tbaa !185
  call void @llvm.lifetime.start.p0(i64 8, ptr %5) #12
  %6 = load ptr, ptr %3, align 8, !tbaa !196
  %7 = getelementptr inbounds nuw %struct._typeobject, ptr %6, i32 0, i32 19
  %8 = load i64, ptr %7, align 8, !tbaa !197
  store i64 %8, ptr %5, align 8, !tbaa !185
  %9 = load i64, ptr %5, align 8, !tbaa !185
  %10 = load i64, ptr %4, align 8, !tbaa !185
  %11 = and i64 %9, %10
  %12 = icmp ne i64 %11, 0
  %13 = zext i1 %12 to i32
  call void @llvm.lifetime.end.p0(i64 8, ptr %5) #12
  ret i32 %13
}

; Function Attrs: inlinehint nounwind uwtable
define internal ptr @_Py_TYPE(ptr noundef %0) #2 {
  %2 = alloca ptr, align 8
  store ptr %0, ptr %2, align 8, !tbaa !4
  %3 = load ptr, ptr %2, align 8, !tbaa !4
  %4 = getelementptr inbounds nuw %struct._object, ptr %3, i32 0, i32 1
  %5 = load ptr, ptr %4, align 8, !tbaa !202
  ret ptr %5
}

; Function Attrs: nounwind uwtable
define dso_local ptr @PyUnicode_RichCompare(ptr noundef %0, ptr noundef %1, i32 noundef %2) #0 {
  %4 = alloca ptr, align 8
  %5 = alloca ptr, align 8
  %6 = alloca ptr, align 8
  %7 = alloca i32, align 4
  %8 = alloca i32, align 4
  %9 = alloca i32, align 4
  store ptr %0, ptr %5, align 8, !tbaa !4
  store ptr %1, ptr %6, align 8, !tbaa !4
  store i32 %2, ptr %7, align 4, !tbaa !190
  call void @llvm.lifetime.start.p0(i64 4, ptr %8) #12
  %10 = load ptr, ptr %5, align 8, !tbaa !4
  %11 = call ptr @_Py_TYPE(ptr noundef %10)
  %12 = call i32 @PyType_HasFeature(ptr noundef %11, i64 noundef 268435456)
  %13 = icmp ne i32 %12, 0
  br i1 %13, label %14, label %19

14:                                               ; preds = %3
  %15 = load ptr, ptr %6, align 8, !tbaa !4
  %16 = call ptr @_Py_TYPE(ptr noundef %15)
  %17 = call i32 @PyType_HasFeature(ptr noundef %16, i64 noundef 268435456)
  %18 = icmp ne i32 %17, 0
  br i1 %18, label %20, label %19

19:                                               ; preds = %14, %3
  store ptr @_Py_NotImplementedStruct, ptr %4, align 8
  store i32 1, ptr %9, align 4
  br label %89

20:                                               ; preds = %14
  %21 = load ptr, ptr %5, align 8, !tbaa !4
  %22 = load ptr, ptr %6, align 8, !tbaa !4
  %23 = icmp eq ptr %21, %22
  br i1 %23, label %24, label %30

24:                                               ; preds = %20
  %25 = load i32, ptr %7, align 4, !tbaa !190
  switch i32 %25, label %28 [
    i32 2, label %26
    i32 1, label %26
    i32 5, label %26
    i32 3, label %27
    i32 0, label %27
    i32 4, label %27
  ]

26:                                               ; preds = %24, %24, %24
  store ptr @_Py_TrueStruct, ptr %4, align 8
  store i32 1, ptr %9, align 4
  br label %89

27:                                               ; preds = %24, %24, %24
  store ptr @_Py_FalseStruct, ptr %4, align 8
  store i32 1, ptr %9, align 4
  br label %89

28:                                               ; preds = %24
  %29 = call i32 @PyErr_BadArgument()
  store ptr null, ptr %4, align 8
  store i32 1, ptr %9, align 4
  br label %89

30:                                               ; preds = %20
  %31 = load i32, ptr %7, align 4, !tbaa !190
  %32 = icmp eq i32 %31, 2
  br i1 %32, label %36, label %33

33:                                               ; preds = %30
  %34 = load i32, ptr %7, align 4, !tbaa !190
  %35 = icmp eq i32 %34, 3
  br i1 %35, label %36, label %48

36:                                               ; preds = %33, %30
  %37 = load ptr, ptr %5, align 8, !tbaa !4
  %38 = load ptr, ptr %6, align 8, !tbaa !4
  %39 = call i32 @unicode_eq(ptr noundef %37, ptr noundef %38)
  store i32 %39, ptr %8, align 4, !tbaa !190
  %40 = load i32, ptr %7, align 4, !tbaa !190
  %41 = icmp eq i32 %40, 3
  %42 = zext i1 %41 to i32
  %43 = load i32, ptr %8, align 4, !tbaa !190
  %44 = xor i32 %43, %42
  store i32 %44, ptr %8, align 4, !tbaa !190
  %45 = load i32, ptr %8, align 4, !tbaa !190
  %46 = sext i32 %45 to i64
  %47 = call ptr @PyBool_FromLong(i64 noundef %46)
  store ptr %47, ptr %4, align 8
  store i32 1, ptr %9, align 4
  br label %89

48:                                               ; preds = %33
  %49 = load ptr, ptr %5, align 8, !tbaa !4
  %50 = load ptr, ptr %6, align 8, !tbaa !4
  %51 = call i32 @unicode_compare(ptr noundef %49, ptr noundef %50)
  store i32 %51, ptr %8, align 4, !tbaa !190
  br label %52

52:                                               ; preds = %48
  %53 = load i32, ptr %7, align 4, !tbaa !190
  switch i32 %53, label %84 [
    i32 2, label %54
    i32 3, label %59
    i32 0, label %64
    i32 4, label %69
    i32 1, label %74
    i32 5, label %79
  ]

54:                                               ; preds = %52
  %55 = load i32, ptr %8, align 4, !tbaa !190
  %56 = icmp eq i32 %55, 0
  br i1 %56, label %57, label %58

57:                                               ; preds = %54
  store ptr @_Py_TrueStruct, ptr %4, align 8
  store i32 1, ptr %9, align 4
  br label %89

58:                                               ; preds = %54
  store ptr @_Py_FalseStruct, ptr %4, align 8
  store i32 1, ptr %9, align 4
  br label %89

59:                                               ; preds = %52
  %60 = load i32, ptr %8, align 4, !tbaa !190
  %61 = icmp ne i32 %60, 0
  br i1 %61, label %62, label %63

62:                                               ; preds = %59
  store ptr @_Py_TrueStruct, ptr %4, align 8
  store i32 1, ptr %9, align 4
  br label %89

63:                                               ; preds = %59
  store ptr @_Py_FalseStruct, ptr %4, align 8
  store i32 1, ptr %9, align 4
  br label %89

64:                                               ; preds = %52
  %65 = load i32, ptr %8, align 4, !tbaa !190
  %66 = icmp slt i32 %65, 0
  br i1 %66, label %67, label %68

67:                                               ; preds = %64
  store ptr @_Py_TrueStruct, ptr %4, align 8
  store i32 1, ptr %9, align 4
  br label %89

68:                                               ; preds = %64
  store ptr @_Py_FalseStruct, ptr %4, align 8
  store i32 1, ptr %9, align 4
  br label %89

69:                                               ; preds = %52
  %70 = load i32, ptr %8, align 4, !tbaa !190
  %71 = icmp sgt i32 %70, 0
  br i1 %71, label %72, label %73

72:                                               ; preds = %69
  store ptr @_Py_TrueStruct, ptr %4, align 8
  store i32 1, ptr %9, align 4
  br label %89

73:                                               ; preds = %69
  store ptr @_Py_FalseStruct, ptr %4, align 8
  store i32 1, ptr %9, align 4
  br label %89

74:                                               ; preds = %52
  %75 = load i32, ptr %8, align 4, !tbaa !190
  %76 = icmp sle i32 %75, 0
  br i1 %76, label %77, label %78

77:                                               ; preds = %74
  store ptr @_Py_TrueStruct, ptr %4, align 8
  store i32 1, ptr %9, align 4
  br label %89

78:                                               ; preds = %74
  store ptr @_Py_FalseStruct, ptr %4, align 8
  store i32 1, ptr %9, align 4
  br label %89

79:                                               ; preds = %52
  %80 = load i32, ptr %8, align 4, !tbaa !190
  %81 = icmp sge i32 %80, 0
  br i1 %81, label %82, label %83

82:                                               ; preds = %79
  store ptr @_Py_TrueStruct, ptr %4, align 8
  store i32 1, ptr %9, align 4
  br label %89

83:                                               ; preds = %79
  store ptr @_Py_FalseStruct, ptr %4, align 8
  store i32 1, ptr %9, align 4
  br label %89

84:                                               ; preds = %52
  unreachable

85:                                               ; No predecessors!
  br label %86

86:                                               ; preds = %85
  br label %87

87:                                               ; preds = %86
  br label %88

88:                                               ; preds = %87
  store i32 0, ptr %9, align 4
  br label %89

89:                                               ; preds = %88, %83, %82, %78, %77, %73, %72, %68, %67, %63, %62, %58, %57, %36, %28, %27, %26, %19
  call void @llvm.lifetime.end.p0(i64 4, ptr %8) #12
  %90 = load i32, ptr %9, align 4
  switch i32 %90, label %93 [
    i32 0, label %91
    i32 1, label %91
  ]

91:                                               ; preds = %89, %89
  %92 = load ptr, ptr %4, align 8
  ret ptr %92

93:                                               ; preds = %89
  unreachable
}