; Function Attrs: nounwind uwtable
define dso_local ptr @PyUnicode_RichCompare(ptr noundef readonly %0, ptr noundef readonly %1, i32 noundef %2) #0 {
  %4 = getelementptr i8, ptr %0, i64 8
  %.val29 = load ptr, ptr %4, align 8, !tbaa !187
  %5 = getelementptr i8, ptr %.val29, i64 168
  %.val31 = load i64, ptr %5, align 8, !tbaa !188
  %6 = and i64 %.val31, 268435456
  %.not = icmp eq i64 %6, 0
  br i1 %.not, label %60, label %7

7:                                                ; preds = %3
  %8 = getelementptr i8, ptr %1, i64 8
  %.val = load ptr, ptr %8, align 8, !tbaa !187
  %9 = getelementptr i8, ptr %.val, i64 168
  %.val30 = load i64, ptr %9, align 8, !tbaa !188
  %10 = and i64 %.val30, 268435456
  %.not25 = icmp eq i64 %10, 0
  br i1 %.not25, label %60, label %11

11:                                               ; preds = %7
  %12 = icmp eq ptr %0, %1
  br i1 %12, label %13, label %17

13:                                               ; preds = %11
  %14 = icmp ult i32 %2, 6
  br i1 %14, label %switch.lookup, label %15

15:                                               ; preds = %13
  %16 = tail call i32 @PyErr_BadArgument() #41
  br label %60

17:                                               ; preds = %11
  %18 = and i32 %2, -2
  %or.cond = icmp eq i32 %18, 2
  br i1 %or.cond, label %19, label %48

19:                                               ; preds = %17
  %20 = icmp eq i32 %2, 3
  %21 = getelementptr i8, ptr %0, i64 16
  %.val15.i = load i64, ptr %21, align 8, !tbaa !197
  %22 = getelementptr i8, ptr %1, i64 16
  %.val.i = load i64, ptr %22, align 8, !tbaa !197
  %.not.i = icmp eq i64 %.val.i, %.val15.i
  br i1 %.not.i, label %23, label %unicode_eq.exit

23:                                               ; preds = %19
  %24 = getelementptr inbounds nuw i8, ptr %0, i64 34
  %25 = load i16, ptr %24, align 2
  %26 = and i16 %25, 7
  %27 = getelementptr inbounds nuw i8, ptr %1, i64 34
  %28 = load i16, ptr %27, align 2
  %29 = and i16 %28, 7
  %.not14.i = icmp eq i16 %29, %26
  br i1 %.not14.i, label %30, label %unicode_eq.exit

30:                                               ; preds = %23
  %31 = and i16 %25, 8
  %.not.i.i = icmp eq i16 %31, 0
  br i1 %.not.i.i, label %34, label %32

32:                                               ; preds = %30
  %33 = and i16 %25, 16
  %.not.i.i.i = icmp eq i16 %33, 0
  %.0.v.i.i.i = select i1 %.not.i.i.i, i64 56, i64 40
  %.0.i.i.i = getelementptr i8, ptr %0, i64 %.0.v.i.i.i
  br label %_PyUnicode_DATA.exit.i

34:                                               ; preds = %30
  %35 = getelementptr i8, ptr %0, i64 56
  %.val4.i.i = load ptr, ptr %35, align 8, !tbaa !195
  br label %_PyUnicode_DATA.exit.i

_PyUnicode_DATA.exit.i:                           ; preds = %34, %32
  %.0.i.i = phi ptr [ %.0.i.i.i, %32 ], [ %.val4.i.i, %34 ]
  %36 = and i16 %28, 8
  %.not.i17.i = icmp eq i16 %36, 0
  br i1 %.not.i17.i, label %39, label %37

37:                                               ; preds = %_PyUnicode_DATA.exit.i
  %38 = and i16 %28, 16
  %.not.i.i18.i = icmp eq i16 %38, 0
  %.0.v.i.i19.i = select i1 %.not.i.i18.i, i64 56, i64 40
  %.0.i.i20.i = getelementptr i8, ptr %1, i64 %.0.v.i.i19.i
  br label %_PyUnicode_DATA.exit23.i

39:                                               ; preds = %_PyUnicode_DATA.exit.i
  %40 = getelementptr i8, ptr %1, i64 56
  %.val4.i22.i = load ptr, ptr %40, align 8, !tbaa !195
  br label %_PyUnicode_DATA.exit23.i

_PyUnicode_DATA.exit23.i:                         ; preds = %39, %37
  %.0.i21.i = phi ptr [ %.0.i.i20.i, %37 ], [ %.val4.i22.i, %39 ]
  %41 = zext nneg i16 %26 to i64
  %42 = mul i64 %.val15.i, %41
  %bcmp.i = tail call i32 @bcmp(ptr %.0.i.i, ptr %.0.i21.i, i64 %42)
  %43 = icmp eq i32 %bcmp.i, 0
  %44 = zext i1 %43 to i64
  br label %unicode_eq.exit

unicode_eq.exit:                                  ; preds = %19, %23, %_PyUnicode_DATA.exit23.i
  %.0.i = phi i64 [ 0, %19 ], [ %44, %_PyUnicode_DATA.exit23.i ], [ 0, %23 ]
  %45 = zext i1 %20 to i64
  %46 = xor i64 %.0.i, %45
  %47 = tail call ptr @PyBool_FromLong(i64 noundef %46) #41
  br label %60

48:                                               ; preds = %17
  %49 = tail call fastcc i32 @unicode_compare(ptr noundef nonnull %0, ptr noundef nonnull %1)
  switch i32 %2, label %58 [
    i32 5, label %56
    i32 1, label %54
    i32 0, label %50
    i32 4, label %52
  ]

50:                                               ; preds = %48
  %51 = icmp slt i32 %49, 0
  %_Py_TrueStruct._Py_FalseStruct = select i1 %51, ptr @_Py_TrueStruct, ptr @_Py_FalseStruct
  br label %60

52:                                               ; preds = %48
  %53 = icmp sgt i32 %49, 0
  %_Py_TrueStruct._Py_FalseStruct26 = select i1 %53, ptr @_Py_TrueStruct, ptr @_Py_FalseStruct
  br label %60

54:                                               ; preds = %48
  %55 = icmp slt i32 %49, 1
  %_Py_TrueStruct._Py_FalseStruct27 = select i1 %55, ptr @_Py_TrueStruct, ptr @_Py_FalseStruct
  br label %60

56:                                               ; preds = %48
  %57 = icmp sgt i32 %49, -1
  %_Py_TrueStruct._Py_FalseStruct28 = select i1 %57, ptr @_Py_TrueStruct, ptr @_Py_FalseStruct
  br label %60

58:                                               ; preds = %48
  unreachable

switch.lookup:                                    ; preds = %13
  %59 = zext nneg i32 %2 to i64
  %switch.gep = getelementptr inbounds nuw [6 x ptr], ptr @switch.table.PyUnicode_RichCompare, i64 0, i64 %59
  %switch.load = load ptr, ptr %switch.gep, align 8
  br label %60

60:                                               ; preds = %switch.lookup, %56, %54, %52, %50, %3, %7, %unicode_eq.exit, %15
  %.0 = phi ptr [ null, %15 ], [ %47, %unicode_eq.exit ], [ @_Py_NotImplementedStruct, %7 ], [ @_Py_NotImplementedStruct, %3 ], [ %_Py_TrueStruct._Py_FalseStruct, %50 ], [ %_Py_TrueStruct._Py_FalseStruct26, %52 ], [ %_Py_TrueStruct._Py_FalseStruct27, %54 ], [ %_Py_TrueStruct._Py_FalseStruct28, %56 ], [ %switch.load, %switch.lookup ]
  ret ptr %.0
}